target datalayout = "e-m:e-p270:32:32-p271:32:32-p272:64:64-i64:64-i128:128-f80:128-n8:16:32:64-S128"
target triple = "x86_64-pc-linux-gnu"

%"class.ade::ExecutionEngine" = type { %"class.std::vector", %"struct.ade::ExecutionEngine::CallbackList", %"struct.ade::ExecutionEngine::CallbackList", %"struct.ade::ExecutionEngine::LazyPasses", %"class.std::unordered_set", %"class.ade::PassManager" }
%"class.std::vector" = type { %"struct.std::_Vector_base" }
%"struct.std::_Vector_base" = type { %"struct.std::_Vector_base<std::unique_ptr<ade::ExecutionBackend>, std::allocator<std::unique_ptr<ade::ExecutionBackend>>>::_Vector_impl" }
%"struct.std::_Vector_base<std::unique_ptr<ade::ExecutionBackend>, std::allocator<std::unique_ptr<ade::ExecutionBackend>>>::_Vector_impl" = type { %"struct.std::_Vector_base<std::unique_ptr<ade::ExecutionBackend>, std::allocator<std::unique_ptr<ade::ExecutionBackend>>>::_Vector_impl_data" }
%"struct.std::_Vector_base<std::unique_ptr<ade::ExecutionBackend>, std::allocator<std::unique_ptr<ade::ExecutionBackend>>>::_Vector_impl_data" = type { ptr, ptr, ptr }
%"struct.ade::ExecutionEngine::CallbackList" = type { %"class.std::vector.0" }
%"class.std::vector.0" = type { %"struct.std::_Vector_base.1" }
%"struct.std::_Vector_base.1" = type { %"struct.std::_Vector_base<std::function<void (const ade::ExecutionEngine::PassDesc &, const ade::passes::PassContext &)>, std::allocator<std::function<void (const ade::ExecutionEngine::PassDesc &, const ade::passes::PassContext &)>>>::_Vector_impl" }
%"struct.std::_Vector_base<std::function<void (const ade::ExecutionEngine::PassDesc &, const ade::passes::PassContext &)>, std::allocator<std::function<void (const ade::ExecutionEngine::PassDesc &, const ade::passes::PassContext &)>>>::_Vector_impl" = type { %"struct.std::_Vector_base<std::function<void (const ade::ExecutionEngine::PassDesc &, const ade::passes::PassContext &)>, std::allocator<std::function<void (const ade::ExecutionEngine::PassDesc &, const ade::passes::PassContext &)>>>::_Vector_impl_data" }
%"struct.std::_Vector_base<std::function<void (const ade::ExecutionEngine::PassDesc &, const ade::passes::PassContext &)>, std::allocator<std::function<void (const ade::ExecutionEngine::PassDesc &, const ade::passes::PassContext &)>>>::_Vector_impl_data" = type { ptr, ptr, ptr }
%"struct.ade::ExecutionEngine::LazyPasses" = type { ptr, %"class.std::unordered_map" }
%"class.std::unordered_map" = type { %"class.std::_Hashtable" }
%"class.std::_Hashtable" = type { ptr, i64, %"struct.std::__detail::_Hash_node_base", i64, %"struct.std::__detail::_Prime_rehash_policy", ptr }
%"struct.std::__detail::_Hash_node_base" = type { ptr }
%"struct.std::__detail::_Prime_rehash_policy" = type { float, i64 }
%"class.std::unordered_set" = type { %"class.std::_Hashtable.10" }
%"class.std::_Hashtable.10" = type { ptr, i64, %"struct.std::__detail::_Hash_node_base", i64, %"struct.std::__detail::_Prime_rehash_policy", ptr }
%"class.ade::PassManager" = type { %"class.std::__cxx11::list", %"class.std::unordered_map.26" }
%"class.std::__cxx11::list" = type { %"class.std::__cxx11::_List_base" }
%"class.std::__cxx11::_List_base" = type { %"struct.std::__cxx11::_List_base<std::pair<std::__cxx11::basic_string<char>, ade::PassList<ade::passes::PassContext>>, std::allocator<std::pair<std::__cxx11::basic_string<char>, ade::PassList<ade::passes::PassContext>>>>::_List_impl" }
%"struct.std::__cxx11::_List_base<std::pair<std::__cxx11::basic_string<char>, ade::PassList<ade::passes::PassContext>>, std::allocator<std::pair<std::__cxx11::basic_string<char>, ade::PassList<ade::passes::PassContext>>>>::_List_impl" = type { %"struct.std::__detail::_List_node_header" }
%"struct.std::__detail::_List_node_header" = type { %"struct.std::__detail::_List_node_base", i64 }
%"struct.std::__detail::_List_node_base" = type { ptr, ptr }
%"class.std::unordered_map.26" = type { %"class.std::_Hashtable.27" }
%"class.std::_Hashtable.27" = type { ptr, i64, %"struct.std::__detail::_Hash_node_base", i64, %"struct.std::__detail::_Prime_rehash_policy", ptr }
%"class.std::function" = type { %"class.std::_Function_base", ptr }
%"class.std::_Function_base" = type { %"union.std::_Any_data", ptr }
%"union.std::_Any_data" = type { %"union.std::_Nocopy_types" }
%"union.std::_Nocopy_types" = type { { i64, i64 } }
%"class.__gnu_cxx::__normal_iterator.122" = type { ptr }

; Function Attrs: mustprogress nounwind uwtable
define linkonce_odr hidden noundef zeroext i1 @_ZNKSt14_Function_base8_M_emptyEv(ptr noundef nonnull align 8 dereferenceable(24) %0) #1 comdat align 2 {
  %2 = alloca ptr, align 8
  store ptr %0, ptr %2, align 8, !tbaa !137
  %3 = load ptr, ptr %2, align 8
  %4 = getelementptr inbounds nuw %"class.std::_Function_base", ptr %3, i32 0, i32 1
  %5 = load ptr, ptr %4, align 8, !tbaa !136
  %6 = icmp ne ptr %5, null
  %7 = xor i1 %6, true
  ret i1 %7
}

; Function Attrs: mustprogress nounwind uwtable
define linkonce_odr hidden noundef nonnull align 8 dereferenceable(8) ptr @_ZNK9__gnu_cxx17__normal_iteratorIPKSt8functionIFvRKN3ade15ExecutionEngine8PassDescERKNS2_6passes11PassContextEEESt6vectorISC_SaISC_EEE4baseEv(ptr noundef nonnull align 8 dereferenceable(8) %0) #1 comdat align 2 {
  %2 = alloca ptr, align 8
  store ptr %0, ptr %2, align 8, !tbaa !139
  %3 = load ptr, ptr %2, align 8
  %4 = getelementptr inbounds nuw %"class.__gnu_cxx::__normal_iterator.122", ptr %3, i32 0, i32 0
  ret ptr %4
}

; Function Attrs: mustprogress nounwind uwtable
define linkonce_odr hidden void @_ZN9__gnu_cxx17__normal_iteratorIPKSt8functionIFvRKN3ade15ExecutionEngine8PassDescERKNS2_6passes11PassContextEEESt6vectorISC_SaISC_EEEC2ERKSE_(ptr noundef nonnull align 8 dereferenceable(8) %0, ptr noundef nonnull align 8 dereferenceable(8) %1) unnamed_addr #1 comdat align 2 {
  %3 = alloca ptr, align 8
  %4 = alloca ptr, align 8
  store ptr %0, ptr %3, align 8, !tbaa !139
  store ptr %1, ptr %4, align 8, !tbaa !434
  %5 = load ptr, ptr %3, align 8
  %6 = getelementptr inbounds nuw %"class.__gnu_cxx::__normal_iterator.122", ptr %5, i32 0, i32 0
  %7 = load ptr, ptr %4, align 8, !tbaa !434
  %8 = load ptr, ptr %7, align 8, !tbaa !39
  store ptr %8, ptr %6, align 8, !tbaa !141
  ret void
}

; Function Attrs: mustprogress nounwind uwtable
define linkonce_odr hidden noundef nonnull align 8 dereferenceable(8) ptr @_ZN9__gnu_cxx17__normal_iteratorIPKSt8functionIFvRKN3ade15ExecutionEngine8PassDescERKNS2_6passes11PassContextEEESt6vectorISC_SaISC_EEEppEv(ptr noundef nonnull align 8 dereferenceable(8) %0) #1 comdat align 2 {
  %2 = alloca ptr, align 8
  store ptr %0, ptr %2, align 8, !tbaa !139
  %3 = load ptr, ptr %2, align 8
  %4 = getelementptr inbounds nuw %"class.__gnu_cxx::__normal_iterator.122", ptr %3, i32 0, i32 0
  %5 = load ptr, ptr %4, align 8, !tbaa !141
  %6 = getelementptr inbounds nuw %"class.std::function", ptr %5, i32 1
  store ptr %6, ptr %4, align 8, !tbaa !141
  ret ptr %3
}

; Function Attrs: mustprogress uwtable
define linkonce_odr hidden void @_ZNKSt8functionIFvRKN3ade15ExecutionEngine8PassDescERKNS0_6passes11PassContextEEEclES4_S8_(ptr noundef nonnull align 8 dereferenceable(32) %0, ptr noundef nonnull align 8 dereferenceable(64) %1, ptr noundef nonnull align 8 dereferenceable(8) %2) #0 comdat align 2 {
  %4 = alloca ptr, align 8
  %5 = alloca ptr, align 8
  %6 = alloca ptr, align 8
  store ptr %0, ptr %4, align 8, !tbaa !39
  store ptr %1, ptr %5, align 8, !tbaa !98
  store ptr %2, ptr %6, align 8, !tbaa !66
  %7 = load ptr, ptr %4, align 8
  %8 = call noundef zeroext i1 @_ZNKSt14_Function_base8_M_emptyEv(ptr noundef nonnull align 8 dereferenceable(24) %7)
  br i1 %8, label %9, label %10

9:                                                ; preds = %3
  call void @_ZSt25__throw_bad_function_callv() #19
  unreachable

10:                                               ; preds = %3
  %11 = getelementptr inbounds nuw %"class.std::function", ptr %7, i32 0, i32 1
  %12 = load ptr, ptr %11, align 8, !tbaa !131
  %13 = getelementptr inbounds nuw %"class.std::_Function_base", ptr %7, i32 0, i32 0
  %14 = load ptr, ptr %5, align 8, !tbaa !98
  %15 = load ptr, ptr %6, align 8, !tbaa !66
  call void %12(ptr noundef nonnull align 8 dereferenceable(16) %13, ptr noundef nonnull align 8 dereferenceable(64) %14, ptr noundef nonnull align 8 dereferenceable(8) %15)
  ret void
}

; Function Attrs: mustprogress nounwind uwtable
define linkonce_odr hidden noundef nonnull align 8 dereferenceable(32) ptr @_ZNK9__gnu_cxx17__normal_iteratorIPKSt8functionIFvRKN3ade15ExecutionEngine8PassDescERKNS2_6passes11PassContextEEESt6vectorISC_SaISC_EEEdeEv(ptr noundef nonnull align 8 dereferenceable(8) %0) #1 comdat align 2 {
  %2 = alloca ptr, align 8
  store ptr %0, ptr %2, align 8, !tbaa !139
  %3 = load ptr, ptr %2, align 8
  %4 = getelementptr inbounds nuw %"class.__gnu_cxx::__normal_iterator.122", ptr %3, i32 0, i32 0
  %5 = load ptr, ptr %4, align 8, !tbaa !141
  ret ptr %5
}

; Function Attrs: inlinehint mustprogress nounwind uwtable
define linkonce_odr hidden noundef zeroext i1 @_ZN9__gnu_cxxneIPKSt8functionIFvRKN3ade15ExecutionEngine8PassDescERKNS2_6passes11PassContextEEESt6vectorISC_SaISC_EEEEbRKNS_17__normal_iteratorIT_T0_EESN_(ptr noundef nonnull align 8 dereferenceable(8) %0, ptr noundef nonnull align 8 dereferenceable(8) %1) #2 comdat {
  %3 = alloca ptr, align 8
  %4 = alloca ptr, align 8
  store ptr %0, ptr %3, align 8, !tbaa !139
  store ptr %1, ptr %4, align 8, !tbaa !139
  %5 = load ptr, ptr %3, align 8, !tbaa !139
  %6 = call noundef nonnull align 8 dereferenceable(8) ptr @_ZNK9__gnu_cxx17__normal_iteratorIPKSt8functionIFvRKN3ade15ExecutionEngine8PassDescERKNS2_6passes11PassContextEEESt6vectorISC_SaISC_EEE4baseEv(ptr noundef nonnull align 8 dereferenceable(8) %5) #16
  %7 = load ptr, ptr %6, align 8, !tbaa !39
  %8 = load ptr, ptr %4, align 8, !tbaa !139
  %9 = call noundef nonnull align 8 dereferenceable(8) ptr @_ZNK9__gnu_cxx17__normal_iteratorIPKSt8functionIFvRKN3ade15ExecutionEngine8PassDescERKNS2_6passes11PassContextEEESt6vectorISC_SaISC_EEE4baseEv(ptr noundef nonnull align 8 dereferenceable(8) %8) #16
  %10 = load ptr, ptr %9, align 8, !tbaa !39
  %11 = icmp ne ptr %7, %10
  ret i1 %11
}

; Function Attrs: mustprogress nounwind uwtable
define linkonce_odr hidden ptr @_ZNKSt6vectorISt8functionIFvRKN3ade15ExecutionEngine8PassDescERKNS1_6passes11PassContextEEESaISB_EE3endEv(ptr noundef nonnull align 8 dereferenceable(24) %0) #1 comdat align 2 {
  %2 = alloca %"class.__gnu_cxx::__normal_iterator.122", align 8
  %3 = alloca ptr, align 8
  store ptr %0, ptr %3, align 8, !tbaa !43
  %4 = load ptr, ptr %3, align 8
  %5 = getelementptr inbounds nuw %"struct.std::_Vector_base.1", ptr %4, i32 0, i32 0
  %6 = getelementptr inbounds nuw %"struct.std::_Vector_base<std::function<void (const ade::ExecutionEngine::PassDesc &, const ade::passes::PassContext &)>, std::allocator<std::function<void (const ade::ExecutionEngine::PassDesc &, const ade::passes::PassContext &)>>>::_Vector_impl_data", ptr %5, i32 0, i32 1
  call void @_ZN9__gnu_cxx17__normal_iteratorIPKSt8functionIFvRKN3ade15ExecutionEngine8PassDescERKNS2_6passes11PassContextEEESt6vectorISC_SaISC_EEEC2ERKSE_(ptr noundef nonnull align 8 dereferenceable(8) %2, ptr noundef nonnull align 8 dereferenceable(8) %6) #16
  %7 = getelementptr inbounds nuw %"class.__gnu_cxx::__normal_iterator.122", ptr %2, i32 0, i32 0
  %8 = load ptr, ptr %7, align 8
  ret ptr %8
}

; Function Attrs: mustprogress nounwind uwtable
define linkonce_odr hidden ptr @_ZNKSt6vectorISt8functionIFvRKN3ade15ExecutionEngine8PassDescERKNS1_6passes11PassContextEEESaISB_EE5beginEv(ptr noundef nonnull align 8 dereferenceable(24) %0) #1 comdat align 2 {
  %2 = alloca %"class.__gnu_cxx::__normal_iterator.122", align 8
  %3 = alloca ptr, align 8
  store ptr %0, ptr %3, align 8, !tbaa !43
  %4 = load ptr, ptr %3, align 8
  %5 = getelementptr inbounds nuw %"struct.std::_Vector_base.1", ptr %4, i32 0, i32 0
  %6 = getelementptr inbounds nuw %"struct.std::_Vector_base<std::function<void (const ade::ExecutionEngine::PassDesc &, const ade::passes::PassContext &)>, std::allocator<std::function<void (const ade::ExecutionEngine::PassDesc &, const ade::passes::PassContext &)>>>::_Vector_impl_data", ptr %5, i32 0, i32 0
  call void @_ZN9__gnu_cxx17__normal_iteratorIPKSt8functionIFvRKN3ade15ExecutionEngine8PassDescERKNS2_6passes11PassContextEEESt6vectorISC_SaISC_EEEC2ERKSE_(ptr noundef nonnull align 8 dereferenceable(8) %2, ptr noundef nonnull align 8 dereferenceable(8) %6) #16
  %7 = getelementptr inbounds nuw %"class.__gnu_cxx::__normal_iterator.122", ptr %2, i32 0, i32 0
  %8 = load ptr, ptr %7, align 8
  ret ptr %8
}

; Function Attrs: mustprogress uwtable
define hidden void @_ZNK3ade15ExecutionEngine12CallbackList4callERKNS0_8PassDescERKNS_6passes11PassContextE(ptr noundef nonnull align 8 dereferenceable(24) %0, ptr noundef nonnull align 8 dereferenceable(64) %1, ptr noundef nonnull align 8 dereferenceable(8) %2) #0 align 2 {
  %4 = alloca ptr, align 8
  %5 = alloca ptr, align 8
  %6 = alloca ptr, align 8
  %7 = alloca ptr, align 8
  %8 = alloca %"class.__gnu_cxx::__normal_iterator.122", align 8
  %9 = alloca %"class.__gnu_cxx::__normal_iterator.122", align 8
  %10 = alloca ptr, align 8
  %11 = alloca i8, align 1
  store ptr %0, ptr %4, align 8, !tbaa !15
  store ptr %1, ptr %5, align 8, !tbaa !98
  store ptr %2, ptr %6, align 8, !tbaa !66
  %12 = load ptr, ptr %4, align 8
  call void @llvm.lifetime.start.p0(i64 8, ptr %7) #16
  %13 = getelementptr inbounds nuw %"struct.ade::ExecutionEngine::CallbackList", ptr %12, i32 0, i32 0
  store ptr %13, ptr %7, align 8, !tbaa !43
  call void @llvm.lifetime.start.p0(i64 8, ptr %8) #16
  %14 = load ptr, ptr %7, align 8, !tbaa !43
  %15 = call ptr @_ZNKSt6vectorISt8functionIFvRKN3ade15ExecutionEngine8PassDescERKNS1_6passes11PassContextEEESaISB_EE5beginEv(ptr noundef nonnull align 8 dereferenceable(24) %14) #16
  %16 = getelementptr inbounds nuw %"class.__gnu_cxx::__normal_iterator.122", ptr %8, i32 0, i32 0
  store ptr %15, ptr %16, align 8
  call void @llvm.lifetime.start.p0(i64 8, ptr %9) #16
  %17 = load ptr, ptr %7, align 8, !tbaa !43
  %18 = call ptr @_ZNKSt6vectorISt8functionIFvRKN3ade15ExecutionEngine8PassDescERKNS1_6passes11PassContextEEESaISB_EE3endEv(ptr noundef nonnull align 8 dereferenceable(24) %17) #16
  %19 = getelementptr inbounds nuw %"class.__gnu_cxx::__normal_iterator.122", ptr %9, i32 0, i32 0
  store ptr %18, ptr %19, align 8
  br label %20

20:                                               ; preds = %31, %3
  %21 = call noundef zeroext i1 @_ZN9__gnu_cxxneIPKSt8functionIFvRKN3ade15ExecutionEngine8PassDescERKNS2_6passes11PassContextEEESt6vectorISC_SaISC_EEEEbRKNS_17__normal_iteratorIT_T0_EESN_(ptr noundef nonnull align 8 dereferenceable(8) %8, ptr noundef nonnull align 8 dereferenceable(8) %9) #16
  br i1 %21, label %23, label %22

22:                                               ; preds = %20
  call void @llvm.lifetime.end.p0(i64 8, ptr %9) #16
  call void @llvm.lifetime.end.p0(i64 8, ptr %8) #16
  call void @llvm.lifetime.end.p0(i64 8, ptr %7) #16
  br label %33

23:                                               ; preds = %20
  call void @llvm.lifetime.start.p0(i64 8, ptr %10) #16
  %24 = call noundef nonnull align 8 dereferenceable(32) ptr @_ZNK9__gnu_cxx17__normal_iteratorIPKSt8functionIFvRKN3ade15ExecutionEngine8PassDescERKNS2_6passes11PassContextEEESt6vectorISC_SaISC_EEEdeEv(ptr noundef nonnull align 8 dereferenceable(8) %8) #16
  store ptr %24, ptr %10, align 8, !tbaa !39
  br label %25

25:                                               ; preds = %23
  call void @llvm.lifetime.start.p0(i64 1, ptr %11) #16
  store i8 0, ptr %11, align 1, !tbaa !41
  call void @llvm.lifetime.end.p0(i64 1, ptr %11) #16
  br label %26

26:                                               ; preds = %25
  br label %27

27:                                               ; preds = %26
  %28 = load ptr, ptr %10, align 8, !tbaa !39
  %29 = load ptr, ptr %5, align 8, !tbaa !98
  %30 = load ptr, ptr %6, align 8, !tbaa !66
  call void @_ZNKSt8functionIFvRKN3ade15ExecutionEngine8PassDescERKNS0_6passes11PassContextEEEclES4_S8_(ptr noundef nonnull align 8 dereferenceable(32) %28, ptr noundef nonnull align 8 dereferenceable(64) %29, ptr noundef nonnull align 8 dereferenceable(8) %30)
  call void @llvm.lifetime.end.p0(i64 8, ptr %10) #16
  br label %31

31:                                               ; preds = %27
  %32 = call noundef nonnull align 8 dereferenceable(8) ptr @_ZN9__gnu_cxx17__normal_iteratorIPKSt8functionIFvRKN3ade15ExecutionEngine8PassDescERKNS2_6passes11PassContextEEESt6vectorISC_SaISC_EEEppEv(ptr noundef nonnull align 8 dereferenceable(8) %8) #16
  br label %20

33:                                               ; preds = %22
  ret void
}

; Function Attrs: mustprogress uwtable
define hidden void @_ZN3ade15ExecutionEngine7prePassERKNS0_8PassDescERKNS_6passes11PassContextE(ptr noundef nonnull align 8 dereferenceable(272) %0, ptr noundef nonnull align 8 dereferenceable(64) %1, ptr noundef nonnull align 8 dereferenceable(8) %2) #0 align 2 {
  %4 = alloca ptr, align 8
  %5 = alloca ptr, align 8
  %6 = alloca ptr, align 8
  store ptr %0, ptr %4, align 8, !tbaa !11
  store ptr %1, ptr %5, align 8, !tbaa !98
  store ptr %2, ptr %6, align 8, !tbaa !66
  %7 = load ptr, ptr %4, align 8
  %8 = getelementptr inbounds nuw %"class.ade::ExecutionEngine", ptr %7, i32 0, i32 1
  %9 = load ptr, ptr %5, align 8, !tbaa !98
  %10 = load ptr, ptr %6, align 8, !tbaa !66
  call void @_ZNK3ade15ExecutionEngine12CallbackList4callERKNS0_8PassDescERKNS_6passes11PassContextE(ptr noundef nonnull align 8 dereferenceable(24) %8, ptr noundef nonnull align 8 dereferenceable(64) %9, ptr noundef nonnull align 8 dereferenceable(8) %10)
  ret void
}