; Function Attrs: mustprogress uwtable
define hidden void @_ZN3ade15ExecutionEngine7prePassERKNS0_8PassDescERKNS_6passes11PassContextE(ptr noundef nonnull readonly align 8 captures(none) dereferenceable(272) %0, ptr noundef nonnull align 8 dereferenceable(64) %1, ptr noundef nonnull align 8 dereferenceable(8) %2) local_unnamed_addr #0 align 2 {
  %4 = getelementptr inbounds nuw i8, ptr %0, i64 24
  %5 = load ptr, ptr %4, align 8, !tbaa !133
  %6 = getelementptr inbounds nuw i8, ptr %0, i64 32
  %7 = load ptr, ptr %6, align 8, !tbaa !133
  %.not9.i = icmp eq ptr %5, %7
  br i1 %.not9.i, label %_ZNK3ade15ExecutionEngine12CallbackList4callERKNS0_8PassDescERKNS_6passes11PassContextE.exit, label %.lr.ph.i

.lr.ph.i:                                         ; preds = %3, %_ZNKSt8functionIFvRKN3ade15ExecutionEngine8PassDescERKNS0_6passes11PassContextEEEclES4_S8_.exit.i
  %.sroa.06.010.i = phi ptr [ %13, %_ZNKSt8functionIFvRKN3ade15ExecutionEngine8PassDescERKNS0_6passes11PassContextEEEclES4_S8_.exit.i ], [ %5, %3 ]
  %8 = getelementptr inbounds nuw i8, ptr %.sroa.06.010.i, i64 16
  %9 = load ptr, ptr %8, align 8, !tbaa !48
  %.not.i.i.i = icmp eq ptr %9, null
  br i1 %.not.i.i.i, label %10, label %_ZNKSt8functionIFvRKN3ade15ExecutionEngine8PassDescERKNS0_6passes11PassContextEEEclES4_S8_.exit.i

10:                                               ; preds = %.lr.ph.i
  tail call void @_ZSt25__throw_bad_function_callv() #28
  unreachable

_ZNKSt8functionIFvRKN3ade15ExecutionEngine8PassDescERKNS0_6passes11PassContextEEEclES4_S8_.exit.i: ; preds = %.lr.ph.i
  %11 = getelementptr inbounds nuw i8, ptr %.sroa.06.010.i, i64 24
  %12 = load ptr, ptr %11, align 8, !tbaa !69
  tail call void %12(ptr noundef nonnull align 8 dereferenceable(32) %.sroa.06.010.i, ptr noundef nonnull align 8 dereferenceable(64) %1, ptr noundef nonnull align 8 dereferenceable(8) %2)
  %13 = getelementptr inbounds nuw i8, ptr %.sroa.06.010.i, i64 32
  %.not.i = icmp eq ptr %13, %7
  br i1 %.not.i, label %_ZNK3ade15ExecutionEngine12CallbackList4callERKNS0_8PassDescERKNS_6passes11PassContextE.exit, label %.lr.ph.i

_ZNK3ade15ExecutionEngine12CallbackList4callERKNS0_8PassDescERKNS_6passes11PassContextE.exit: ; preds = %_ZNKSt8functionIFvRKN3ade15ExecutionEngine8PassDescERKNS0_6passes11PassContextEEEclES4_S8_.exit.i, %3
  ret void
}